target datalayout = "e-m:e-p270:32:32-p271:32:32-p272:64:64-i64:64-i128:128-f80:128-n8:16:32:64-S128"
target triple = "x86_64-pc-linux-gnu"

%struct.H5S_t = type { %struct.H5S_extent_t, %struct.H5S_select_t }
%struct.H5S_extent_t = type { %struct.H5O_shared_t, i32, i32, i64, i32, ptr, ptr }
%struct.H5O_shared_t = type { i32, ptr, i32, %union.anon }
%union.anon = type { %struct.H5O_mesg_loc_t }
%struct.H5O_mesg_loc_t = type { i32, i64 }
%struct.H5S_select_t = type { ptr, i8, [32 x i64], i64, %union.anon.0 }
%union.anon.0 = type { ptr }
%struct.H5S_hyper_sel_t = type { i32, %struct.H5S_hyper_diminfo_t, i32, i64, ptr }
%struct.H5S_hyper_diminfo_t = type { [32 x %struct.H5S_hyper_dim_t], [32 x %struct.H5S_hyper_dim_t], [32 x i64], [32 x i64] }
%struct.H5S_hyper_dim_t = type { i64, i64, i64, i64 }
%struct.H5S_hyper_span_info_t = type { i32, ptr, ptr, [2 x %struct.H5S_hyper_op_info_t], ptr, ptr, [0 x i64] }
%struct.H5S_hyper_op_info_t = type { i64, %union.anon.1 }
%union.anon.1 = type { ptr }
%struct.H5S_hyper_span_t = type { i64, i64, ptr, ptr }

@H5S_init_g = external global i8, align 1
@H5_libterm_g = external global i8, align 1

; Function Attrs: nounwind uwtable
define internal i32 @H5S__hyper_is_single(ptr noundef %0) #0 {
  %2 = alloca i32, align 4
  %3 = alloca ptr, align 8
  %4 = alloca i32, align 4
  %5 = alloca i32, align 4
  %6 = alloca i32, align 4
  %7 = alloca ptr, align 8
  %8 = alloca ptr, align 8
  store ptr %0, ptr %3, align 8, !tbaa !3
  call void @llvm.lifetime.start.p0(i64 4, ptr %4) #7
  store i32 1, ptr %4, align 4, !tbaa !10
  %9 = load i8, ptr @H5S_init_g, align 1, !tbaa !8, !range !12, !noundef !13
  %10 = trunc i8 %9 to i1
  br i1 %10, label %15, label %11

11:                                               ; preds = %1
  %12 = load i8, ptr @H5_libterm_g, align 1, !tbaa !8, !range !12, !noundef !13
  %13 = trunc i8 %12 to i1
  %14 = xor i1 %13, true
  br label %15

15:                                               ; preds = %11, %1
  %16 = phi i1 [ true, %1 ], [ %14, %11 ]
  %17 = xor i1 %16, true
  %18 = xor i1 %17, true
  %19 = zext i1 %18 to i32
  %20 = sext i32 %19 to i64
  %21 = call i64 @llvm.expect.i64(i64 %20, i64 1)
  %22 = icmp ne i64 %21, 0
  br i1 %22, label %23, label %100

23:                                               ; preds = %15
  %24 = load ptr, ptr %3, align 8, !tbaa !3
  %25 = getelementptr inbounds nuw %struct.H5S_t, ptr %24, i32 0, i32 1
  %26 = getelementptr inbounds nuw %struct.H5S_select_t, ptr %25, i32 0, i32 4
  %27 = load ptr, ptr %26, align 8, !tbaa !14
  %28 = getelementptr inbounds nuw %struct.H5S_hyper_sel_t, ptr %27, i32 0, i32 0
  %29 = load i32, ptr %28, align 8, !tbaa !18
  %30 = icmp eq i32 %29, 2
  br i1 %30, label %31, label %64

31:                                               ; preds = %23
  call void @llvm.lifetime.start.p0(i64 4, ptr %5) #7
  store i32 0, ptr %5, align 4, !tbaa !10
  br label %32

32:                                               ; preds = %57, %31
  %33 = load i32, ptr %5, align 4, !tbaa !10
  %34 = load ptr, ptr %3, align 8, !tbaa !3
  %35 = getelementptr inbounds nuw %struct.H5S_t, ptr %34, i32 0, i32 0
  %36 = getelementptr inbounds nuw %struct.H5S_extent_t, ptr %35, i32 0, i32 4
  %37 = load i32, ptr %36, align 8, !tbaa !23
  %38 = icmp ult i32 %33, %37
  br i1 %38, label %39, label %60

39:                                               ; preds = %32
  %40 = load ptr, ptr %3, align 8, !tbaa !3
  %41 = getelementptr inbounds nuw %struct.H5S_t, ptr %40, i32 0, i32 1
  %42 = getelementptr inbounds nuw %struct.H5S_select_t, ptr %41, i32 0, i32 4
  %43 = load ptr, ptr %42, align 8, !tbaa !14
  %44 = getelementptr inbounds nuw %struct.H5S_hyper_sel_t, ptr %43, i32 0, i32 1
  %45 = getelementptr inbounds nuw %struct.H5S_hyper_diminfo_t, ptr %44, i32 0, i32 1
  %46 = load i32, ptr %5, align 4, !tbaa !10
  %47 = zext i32 %46 to i64
  %48 = getelementptr inbounds nuw [32 x %struct.H5S_hyper_dim_t], ptr %45, i64 0, i64 %47
  %49 = getelementptr inbounds nuw %struct.H5S_hyper_dim_t, ptr %48, i32 0, i32 2
  %50 = load i64, ptr %49, align 8, !tbaa !49
  %51 = icmp ugt i64 %50, 1
  br i1 %51, label %52, label %56

52:                                               ; preds = %39
  br label %53

53:                                               ; preds = %52
  store i32 0, ptr %4, align 4, !tbaa !10
  store i32 7, ptr %6, align 4
  br label %61

54:                                               ; No predecessors!
  br label %55

55:                                               ; preds = %54
  br label %56

56:                                               ; preds = %55, %39
  br label %57

57:                                               ; preds = %56
  %58 = load i32, ptr %5, align 4, !tbaa !10
  %59 = add i32 %58, 1
  store i32 %59, ptr %5, align 4, !tbaa !10
  br label %32, !llvm.loop !112

60:                                               ; preds = %32
  store i32 0, ptr %6, align 4
  br label %61

61:                                               ; preds = %53, %60
  call void @llvm.lifetime.end.p0(i64 4, ptr %5) #7
  %62 = load i32, ptr %6, align 4
  switch i32 %62, label %102 [
    i32 0, label %63
    i32 7, label %99
  ]

63:                                               ; preds = %61
  br label %98

64:                                               ; preds = %23
  call void @llvm.lifetime.start.p0(i64 8, ptr %7) #7
  %65 = load ptr, ptr %3, align 8, !tbaa !3
  %66 = getelementptr inbounds nuw %struct.H5S_t, ptr %65, i32 0, i32 1
  %67 = getelementptr inbounds nuw %struct.H5S_select_t, ptr %66, i32 0, i32 4
  %68 = load ptr, ptr %67, align 8, !tbaa !14
  %69 = getelementptr inbounds nuw %struct.H5S_hyper_sel_t, ptr %68, i32 0, i32 4
  %70 = load ptr, ptr %69, align 8, !tbaa !22
  store ptr %70, ptr %7, align 8, !tbaa !107
  br label %71

71:                                               ; preds = %93, %64
  %72 = load ptr, ptr %7, align 8, !tbaa !107
  %73 = icmp ne ptr %72, null
  br i1 %73, label %74, label %94

74:                                               ; preds = %71
  call void @llvm.lifetime.start.p0(i64 8, ptr %8) #7
  %75 = load ptr, ptr %7, align 8, !tbaa !107
  %76 = getelementptr inbounds nuw %struct.H5S_hyper_span_info_t, ptr %75, i32 0, i32 4
  %77 = load ptr, ptr %76, align 8, !tbaa !99
  store ptr %77, ptr %8, align 8, !tbaa !99
  %78 = load ptr, ptr %8, align 8, !tbaa !99
  %79 = getelementptr inbounds nuw %struct.H5S_hyper_span_t, ptr %78, i32 0, i32 3
  %80 = load ptr, ptr %79, align 8, !tbaa !108
  %81 = icmp ne ptr %80, null
  br i1 %81, label %82, label %86

82:                                               ; preds = %74
  br label %83

83:                                               ; preds = %82
  store i32 0, ptr %4, align 4, !tbaa !10
  store i32 7, ptr %6, align 4
  br label %91

84:                                               ; No predecessors!
  br label %85

85:                                               ; preds = %84
  br label %90

86:                                               ; preds = %74
  %87 = load ptr, ptr %8, align 8, !tbaa !99
  %88 = getelementptr inbounds nuw %struct.H5S_hyper_span_t, ptr %87, i32 0, i32 2
  %89 = load ptr, ptr %88, align 8, !tbaa !103
  store ptr %89, ptr %7, align 8, !tbaa !107
  br label %90

90:                                               ; preds = %86, %85
  store i32 0, ptr %6, align 4
  br label %91

91:                                               ; preds = %83, %90
  call void @llvm.lifetime.end.p0(i64 8, ptr %8) #7
  %92 = load i32, ptr %6, align 4
  switch i32 %92, label %95 [
    i32 0, label %93
  ]

93:                                               ; preds = %91
  br label %71, !llvm.loop !113

94:                                               ; preds = %71
  store i32 0, ptr %6, align 4
  br label %95

95:                                               ; preds = %94, %91
  call void @llvm.lifetime.end.p0(i64 8, ptr %7) #7
  %96 = load i32, ptr %6, align 4
  switch i32 %96, label %102 [
    i32 0, label %97
    i32 7, label %99
  ]

97:                                               ; preds = %95
  br label %98

98:                                               ; preds = %97, %63
  br label %99

99:                                               ; preds = %98, %95, %61
  br label %100

100:                                              ; preds = %99, %15
  %101 = load i32, ptr %4, align 4, !tbaa !10
  store i32 %101, ptr %2, align 4
  store i32 1, ptr %6, align 4
  br label %102

102:                                              ; preds = %100, %95, %61
  call void @llvm.lifetime.end.p0(i64 4, ptr %4) #7
  %103 = load i32, ptr %2, align 4
  ret i32 %103
}