; Function Attrs: nofree norecurse nosync nounwind memory(read, inaccessiblemem: none) uwtable
define internal range(i32 0, 2) i32 @H5S__hyper_is_single(ptr noundef readonly captures(none) %0) #1 {
  %2 = load i8, ptr @H5S_init_g, align 1, !tbaa !3, !range !7, !noundef !8
  %3 = trunc nuw i8 %2 to i1
  %4 = load i8, ptr @H5_libterm_g, align 1, !range !7
  %5 = trunc nuw i8 %4 to i1
  %6 = xor i1 %5, true
  %7 = select i1 %3, i1 true, i1 %6
  br i1 %7, label %8, label %.thread, !prof !9

8:                                                ; preds = %1
  %9 = getelementptr inbounds nuw i8, ptr %0, i64 360
  %10 = load ptr, ptr %9, align 8, !tbaa !10
  %11 = load i32, ptr %10, align 8, !tbaa !13
  %12 = icmp eq i32 %11, 2
  br i1 %12, label %.preheader, label %21

.preheader:                                       ; preds = %8
  %13 = getelementptr inbounds nuw i8, ptr %0, i64 56
  %14 = load i32, ptr %13, align 8, !tbaa !21
  %.not37 = icmp eq i32 %14, 0
  br i1 %.not37, label %.thread, label %.lr.ph33

.lr.ph33:                                         ; preds = %.preheader
  %15 = getelementptr i8, ptr %10, i64 1048
  %wide.trip.count = zext i32 %14 to i64
  br label %17

16:                                               ; preds = %17
  %indvars.iv.next = add nuw nsw i64 %indvars.iv, 1
  %exitcond.not = icmp eq i64 %indvars.iv.next, %wide.trip.count
  br i1 %exitcond.not, label %.thread, label %17, !llvm.loop !101

17:                                               ; preds = %.lr.ph33, %16
  %indvars.iv = phi i64 [ 0, %.lr.ph33 ], [ %indvars.iv.next, %16 ]
  %.idx = shl nuw nsw i64 %indvars.iv, 5
  %18 = getelementptr i8, ptr %15, i64 %.idx
  %19 = load i64, ptr %18, align 8, !tbaa !35
  %20 = icmp ugt i64 %19, 1
  br i1 %20, label %.thread, label %16

21:                                               ; preds = %8
  %22 = getelementptr inbounds nuw i8, ptr %10, i64 2584
  %.01527 = load ptr, ptr %22, align 8, !tbaa !99
  %.not28 = icmp eq ptr %.01527, null
  br i1 %.not28, label %.thread, label %.lr.ph

23:                                               ; preds = %.lr.ph
  %24 = getelementptr inbounds nuw i8, ptr %26, i64 16
  %.015 = load ptr, ptr %24, align 8, !tbaa !99
  %.not = icmp eq ptr %.015, null
  br i1 %.not, label %.thread, label %.lr.ph, !llvm.loop !102

.lr.ph:                                           ; preds = %21, %23
  %.01529 = phi ptr [ %.015, %23 ], [ %.01527, %21 ]
  %25 = getelementptr inbounds nuw i8, ptr %.01529, i64 56
  %26 = load ptr, ptr %25, align 8, !tbaa !88
  %27 = getelementptr inbounds nuw i8, ptr %26, i64 24
  %28 = load ptr, ptr %27, align 8, !tbaa !96
  %.not22 = icmp eq ptr %28, null
  br i1 %.not22, label %23, label %.thread

.thread:                                          ; preds = %23, %.lr.ph, %16, %17, %21, %.preheader, %1
  %.0 = phi i32 [ 1, %1 ], [ 1, %.preheader ], [ 1, %21 ], [ 1, %16 ], [ 0, %17 ], [ 1, %23 ], [ 0, %.lr.ph ]
  ret i32 %.0
}